; Function Attrs: mustprogress nofree norecurse nosync nounwind willreturn memory(argmem: readwrite) uwtable
define hidden void @_mi_heap_area_init(ptr noundef writeonly captures(none) initializes((0, 52)) %0, ptr noundef readonly captures(none) %1) local_unnamed_addr #5 {
  %3 = getelementptr i8, ptr %1, i64 32
  %.val = load i64, ptr %3, align 8, !tbaa !62
  %4 = getelementptr inbounds nuw i8, ptr %1, i64 4
  %5 = load i16, ptr %4, align 4, !tbaa !63
  %6 = zext i16 %5 to i64
  %7 = mul i64 %.val, %6
  %8 = getelementptr inbounds nuw i8, ptr %0, i64 8
  store i64 %7, ptr %8, align 8, !tbaa !64
  %9 = getelementptr inbounds nuw i8, ptr %1, i64 2
  %10 = load i16, ptr %9, align 2, !tbaa !61
  %11 = zext i16 %10 to i64
  %12 = mul i64 %.val, %11
  %13 = getelementptr inbounds nuw i8, ptr %0, i64 16
  store i64 %12, ptr %13, align 8, !tbaa !66
  %14 = getelementptr i8, ptr %1, i64 40
  %.val17 = load ptr, ptr %14, align 8, !tbaa !60
  store ptr %.val17, ptr %0, align 8, !tbaa !67
  %15 = getelementptr inbounds nuw i8, ptr %1, i64 24
  %16 = load i16, ptr %15, align 8, !tbaa !41
  %17 = zext i16 %16 to i64
  %18 = getelementptr inbounds nuw i8, ptr %0, i64 24
  store i64 %17, ptr %18, align 8, !tbaa !68
  %19 = getelementptr inbounds nuw i8, ptr %0, i64 32
  store i64 %.val, ptr %19, align 8, !tbaa !69
  %20 = getelementptr inbounds nuw i8, ptr %0, i64 40
  store i64 %.val, ptr %20, align 8, !tbaa !70
  %21 = getelementptr inbounds nuw i8, ptr %1, i64 27
  %22 = load i8, ptr %21, align 1, !tbaa !71
  %23 = zext i8 %22 to i32
  %24 = getelementptr inbounds nuw i8, ptr %0, i64 48
  store i32 %23, ptr %24, align 8, !tbaa !72
  ret void
}